; ModuleID = '50/241.c'
source_filename = "50/241.c"
target datalayout = "e-m:e-p270:32:32-p271:32:32-p272:64:64-i64:64-f80:128-n8:16:32:64-S128"
target triple = "x86_64-pc-linux-gnu"

@__const.main.d = private unnamed_addr constant [12 x i32] [i32 31, i32 28, i32 31, i32 30, i32 31, i32 30, i32 31, i32 31, i32 30, i32 31, i32 30, i32 31], align 16
@.str = private unnamed_addr constant [3 x i8] c"%d\00", align 1
@.str.1 = private unnamed_addr constant [4 x i8] c"%d\0A\00", align 1

; Function Attrs: noinline nounwind uwtable
define dso_local void @main() #0 {
  %1 = alloca i32, align 4
  %2 = alloca i32, align 4
  %3 = alloca i32, align 4
  %4 = alloca i32, align 4
  %5 = alloca i32, align 4
  %6 = alloca i32, align 4
  %7 = alloca [12 x i32], align 16
  %8 = alloca [12 x i32], align 16
  %9 = alloca [365 x i32], align 16
  %10 = alloca [53 x i32], align 16
  store i32 0, i32* %5, align 4
  store i32 0, i32* %6, align 4
  %11 = bitcast [12 x i32]* %7 to i8*
  call void @llvm.memcpy.p0i8.p0i8.i64(i8* align 16 %11, i8* align 16 bitcast ([12 x i32]* @__const.main.d to i8*), i64 48, i1 false)
  %12 = call i32 (i8*, ...) @__isoc99_scanf(i8* getelementptr inbounds ([3 x i8], [3 x i8]* @.str, i64 0, i64 0), i32* %1)
  %13 = load i32, i32* %1, align 4
  store i32 %13, i32* %2, align 4
  store i32 0, i32* %4, align 4
  br label %14

14:                                               ; preds = %29, %0
  %15 = load i32, i32* %4, align 4
  %16 = icmp slt i32 %15, 12
  br i1 %16, label %17, label %32

17:                                               ; preds = %14
  %18 = load i32, i32* %6, align 4
  %19 = add nsw i32 %18, 13
  %20 = load i32, i32* %4, align 4
  %21 = sext i32 %20 to i64
  %22 = getelementptr inbounds [12 x i32], [12 x i32]* %8, i64 0, i64 %21
  store i32 %19, i32* %22, align 4
  %23 = load i32, i32* %6, align 4
  %24 = load i32, i32* %4, align 4
  %25 = sext i32 %24 to i64
  %26 = getelementptr inbounds [12 x i32], [12 x i32]* %7, i64 0, i64 %25
  %27 = load i32, i32* %26, align 4
  %28 = add nsw i32 %23, %27
  store i32 %28, i32* %6, align 4
  br label %29

29:                                               ; preds = %17
  %30 = load i32, i32* %4, align 4
  %31 = add nsw i32 %30, 1
  store i32 %31, i32* %4, align 4
  br label %14

32:                                               ; preds = %14
  store i32 0, i32* %3, align 4
  br label %33

33:                                               ; preds = %42, %32
  %34 = load i32, i32* %3, align 4
  %35 = icmp slt i32 %34, 365
  br i1 %35, label %36, label %45

36:                                               ; preds = %33
  %37 = load i32, i32* %3, align 4
  %38 = add nsw i32 %37, 1
  %39 = load i32, i32* %3, align 4
  %40 = sext i32 %39 to i64
  %41 = getelementptr inbounds [365 x i32], [365 x i32]* %9, i64 0, i64 %40
  store i32 %38, i32* %41, align 4
  br label %42

42:                                               ; preds = %36
  %43 = load i32, i32* %3, align 4
  %44 = add nsw i32 %43, 1
  store i32 %44, i32* %3, align 4
  br label %33

45:                                               ; preds = %33
  store i32 0, i32* %4, align 4
  br label %46

46:                                               ; preds = %69, %45
  %47 = load i32, i32* %4, align 4
  %48 = icmp slt i32 %47, 365
  br i1 %48, label %49, label %72

49:                                               ; preds = %46
  %50 = load i32, i32* %2, align 4
  %51 = icmp eq i32 %50, 5
  br i1 %51, label %52, label %62

52:                                               ; preds = %49
  %53 = load i32, i32* %4, align 4
  %54 = sext i32 %53 to i64
  %55 = getelementptr inbounds [365 x i32], [365 x i32]* %9, i64 0, i64 %54
  %56 = load i32, i32* %55, align 4
  %57 = load i32, i32* %5, align 4
  %58 = sext i32 %57 to i64
  %59 = getelementptr inbounds [53 x i32], [53 x i32]* %10, i64 0, i64 %58
  store i32 %56, i32* %59, align 4
  %60 = load i32, i32* %5, align 4
  %61 = add nsw i32 %60, 1
  store i32 %61, i32* %5, align 4
  br label %62

62:                                               ; preds = %52, %49
  %63 = load i32, i32* %2, align 4
  %64 = add nsw i32 %63, 1
  store i32 %64, i32* %2, align 4
  %65 = load i32, i32* %2, align 4
  %66 = icmp eq i32 %65, 8
  br i1 %66, label %67, label %68

67:                                               ; preds = %62
  store i32 1, i32* %2, align 4
  br label %68

68:                                               ; preds = %67, %62
  br label %69

69:                                               ; preds = %68
  %70 = load i32, i32* %4, align 4
  %71 = add nsw i32 %70, 1
  store i32 %71, i32* %4, align 4
  br label %46

72:                                               ; preds = %46
  store i32 0, i32* %4, align 4
  br label %73

73:                                               ; preds = %99, %72
  %74 = load i32, i32* %4, align 4
  %75 = icmp slt i32 %74, 12
  br i1 %75, label %76, label %102

76:                                               ; preds = %73
  store i32 0, i32* %3, align 4
  br label %77

77:                                               ; preds = %95, %76
  %78 = load i32, i32* %3, align 4
  %79 = icmp slt i32 %78, 53
  br i1 %79, label %80, label %98

80:                                               ; preds = %77
  %81 = load i32, i32* %4, align 4
  %82 = sext i32 %81 to i64
  %83 = getelementptr inbounds [12 x i32], [12 x i32]* %8, i64 0, i64 %82
  %84 = load i32, i32* %83, align 4
  %85 = load i32, i32* %3, align 4
  %86 = sext i32 %85 to i64
  %87 = getelementptr inbounds [53 x i32], [53 x i32]* %10, i64 0, i64 %86
  %88 = load i32, i32* %87, align 4
  %89 = icmp eq i32 %84, %88
  br i1 %89, label %90, label %94

90:                                               ; preds = %80
  %91 = load i32, i32* %4, align 4
  %92 = add nsw i32 %91, 1
  %93 = call i32 (i8*, ...) @printf(i8* getelementptr inbounds ([4 x i8], [4 x i8]* @.str.1, i64 0, i64 0), i32 %92)
  br label %94

94:                                               ; preds = %90, %80
  br label %95

95:                                               ; preds = %94
  %96 = load i32, i32* %3, align 4
  %97 = add nsw i32 %96, 1
  store i32 %97, i32* %3, align 4
  br label %77

98:                                               ; preds = %77
  br label %99

99:                                               ; preds = %98
  %100 = load i32, i32* %4, align 4
  %101 = add nsw i32 %100, 1
  store i32 %101, i32* %4, align 4
  br label %73

102:                                              ; preds = %73
  ret void
}

; Function Attrs: argmemonly nounwind willreturn
declare void @llvm.memcpy.p0i8.p0i8.i64(i8* noalias nocapture writeonly, i8* noalias nocapture readonly, i64, i1 immarg) #1

declare dso_local i32 @__isoc99_scanf(i8*, ...) #2

declare dso_local i32 @printf(i8*, ...) #2


!llvm.module.flags = !{!0}
!llvm.ident = !{!1}

!0 = !{i32 1, !"wchar_size", i32 4}
!1 = !{!"clang version 10.0.0-4ubuntu1 "}
